target datalayout = "e-m:e-p270:32:32-p271:32:32-p272:64:64-i64:64-i128:128-f80:128-n8:16:32:64-S128"
target triple = "x86_64-unknown-linux-gnu"

%struct.MemoryRegion = type { %struct.Object, i8, i8, i8, i8, i8, i8, i8, i8, i8, i8, ptr, ptr, ptr, ptr, ptr, ptr, i32, i128, i64, ptr, i64, i8, i8, i8, i8, i8, ptr, i64, i32, %union.anon, %union.anon.0, %union.anon.1, ptr, i32, ptr, ptr, i8 }
%struct.Object = type { ptr, ptr, ptr, i32, ptr }
%union.anon = type { %struct.QTailQLink }
%struct.QTailQLink = type { ptr, ptr }
%union.anon.0 = type { %struct.QTailQLink }
%union.anon.1 = type { %struct.QTailQLink }
%struct.VGACommonState = type { ptr, ptr, %struct.MemoryRegion, i32, i32, i32, i32, i32, i8, %struct.MemoryRegion, i8, [256 x i8], [256 x i8], i8, [256 x i8], i8, [21 x i8], i32, i8, [256 x i8], i8, i8, i8, i8, i8, i8, i8, i8, [3 x i8], i32, [768 x i8], i32, ptr, ptr, ptr, %struct.PortioList, %struct.PortioList, i16, [10 x i16], i32, i32, i32, ptr, [2 x i32], i32, i8, i8, i32, i32, i32, i32, i32, i8, i8, i32, i32, i32, i32, i32, i8, i8, i8, i8, i8, i64, i32, ptr, i8, i8, i8, i8, i8, [64 x i32], i32, i32, ptr, ptr, [256 x i32], [16000 x i32], ptr, ptr, %union.vga_retrace, i8 }
%struct.PortioList = type { ptr, ptr, ptr, i32, ptr, ptr, ptr, i8 }
%union.vga_retrace = type { %struct.vga_precise_retrace }
%struct.vga_precise_retrace = type { i64, i64, i32, i32, i32, i32, i32, i32 }

; Function Attrs: nounwind sspstrong uwtable
define internal void @pci_vga_qext_write(ptr noundef %ptr, i64 noundef %addr, i64 noundef %val, i32 noundef %size) #0 {
entry:
  %ptr.addr = alloca ptr, align 8
  %addr.addr = alloca i64, align 8
  %val.addr = alloca i64, align 8
  %size.addr = alloca i32, align 4
  %s = alloca ptr, align 8
  store ptr %ptr, ptr %ptr.addr, align 8
  store i64 %addr, ptr %addr.addr, align 8
  store i64 %val, ptr %val.addr, align 8
  store i32 %size, ptr %size.addr, align 4
  %0 = load ptr, ptr %ptr.addr, align 8
  store ptr %0, ptr %s, align 8
  %1 = load i64, ptr %addr.addr, align 8
  switch i64 %1, label %sw.epilog [
    i64 4, label %sw.bb
  ]

sw.bb:                                            ; preds = %entry
  %2 = load i64, ptr %val.addr, align 8
  %cmp = icmp eq i64 %2, 3200171710
  br i1 %cmp, label %if.then, label %if.end

if.then:                                          ; preds = %sw.bb
  %3 = load ptr, ptr %s, align 8
  %big_endian_fb = getelementptr inbounds %struct.VGACommonState, ptr %3, i32 0, i32 69
  store i8 1, ptr %big_endian_fb, align 2
  br label %if.end

if.end:                                           ; preds = %if.then, %sw.bb
  %4 = load i64, ptr %val.addr, align 8
  %cmp1 = icmp eq i64 %4, 505290270
  br i1 %cmp1, label %if.then2, label %if.end4

if.then2:                                         ; preds = %if.end
  %5 = load ptr, ptr %s, align 8
  %big_endian_fb3 = getelementptr inbounds %struct.VGACommonState, ptr %5, i32 0, i32 69
  store i8 0, ptr %big_endian_fb3, align 2
  br label %if.end4

if.end4:                                          ; preds = %if.then2, %if.end
  br label %sw.epilog

sw.epilog:                                        ; preds = %if.end4, %entry
  ret void
}