; Function Attrs: mustprogress nofree norecurse nosync nounwind sspstrong willreturn memory(argmem: write) uwtable
define internal void @pci_vga_qext_write(ptr noundef writeonly captures(none) %ptr, i64 noundef %addr, i64 noundef %val, i32 %size) #3 {
entry:
  %cond = icmp eq i64 %addr, 4
  br i1 %cond, label %sw.bb, label %sw.epilog

sw.bb:                                            ; preds = %entry
  switch i64 %val, label %sw.epilog [
    i64 3200171710, label %sw.epilog.sink.split
    i64 505290270, label %if.then2
  ]

if.then2:                                         ; preds = %sw.bb
  br label %sw.epilog.sink.split

sw.epilog.sink.split:                             ; preds = %sw.bb, %if.then2
  %.sink = phi i8 [ 0, %if.then2 ], [ 1, %sw.bb ]
  %big_endian_fb = getelementptr inbounds nuw i8, ptr %ptr, i64 2730
  store i8 %.sink, ptr %big_endian_fb, align 2
  br label %sw.epilog

sw.epilog:                                        ; preds = %sw.epilog.sink.split, %sw.bb, %entry
  ret void
}